target datalayout = "e-m:e-p270:32:32-p271:32:32-p272:64:64-i64:64-i128:128-f80:128-n8:16:32:64-S128"
target triple = "x86_64-pc-linux-gnu"

%struct.UTrie2 = type { ptr, ptr, ptr, i32, i32, i16, i16, i32, i32, i32, i32, ptr, i32, i8, i8, i16, ptr }
%struct.UNewTrie2 = type { [544 x i32], [35488 x i32], ptr, i32, i32, i32, i32, i32, i32, i32, i32, i32, i8, [34852 x i32] }

; Function Attrs: mustprogress uwtable
define void @utrie2_close_77(ptr noundef %0) #0 {
  %2 = alloca ptr, align 8
  store ptr %0, ptr %2, align 8, !tbaa !3
  %3 = load ptr, ptr %2, align 8, !tbaa !3
  %4 = icmp ne ptr %3, null
  br i1 %4, label %5, label %30

5:                                                ; preds = %1
  %6 = load ptr, ptr %2, align 8, !tbaa !3
  %7 = getelementptr inbounds nuw %struct.UTrie2, ptr %6, i32 0, i32 13
  %8 = load i8, ptr %7, align 4, !tbaa !53
  %9 = icmp ne i8 %8, 0
  br i1 %9, label %10, label %14

10:                                               ; preds = %5
  %11 = load ptr, ptr %2, align 8, !tbaa !3
  %12 = getelementptr inbounds nuw %struct.UTrie2, ptr %11, i32 0, i32 11
  %13 = load ptr, ptr %12, align 8, !tbaa !51
  call void @uprv_free_77(ptr noundef %13)
  br label %14

14:                                               ; preds = %10, %5
  %15 = load ptr, ptr %2, align 8, !tbaa !3
  %16 = getelementptr inbounds nuw %struct.UTrie2, ptr %15, i32 0, i32 16
  %17 = load ptr, ptr %16, align 8, !tbaa !23
  %18 = icmp ne ptr %17, null
  br i1 %18, label %19, label %28

19:                                               ; preds = %14
  %20 = load ptr, ptr %2, align 8, !tbaa !3
  %21 = getelementptr inbounds nuw %struct.UTrie2, ptr %20, i32 0, i32 16
  %22 = load ptr, ptr %21, align 8, !tbaa !23
  %23 = getelementptr inbounds nuw %struct.UNewTrie2, ptr %22, i32 0, i32 2
  %24 = load ptr, ptr %23, align 8, !tbaa !28
  call void @uprv_free_77(ptr noundef %24)
  %25 = load ptr, ptr %2, align 8, !tbaa !3
  %26 = getelementptr inbounds nuw %struct.UTrie2, ptr %25, i32 0, i32 16
  %27 = load ptr, ptr %26, align 8, !tbaa !23
  call void @uprv_free_77(ptr noundef %27)
  br label %28

28:                                               ; preds = %19, %14
  %29 = load ptr, ptr %2, align 8, !tbaa !3
  call void @uprv_free_77(ptr noundef %29)
  br label %30

30:                                               ; preds = %28, %1
  ret void
}