; Function Attrs: mustprogress uwtable
define void @utrie2_close_77(ptr noundef %0) local_unnamed_addr #1 {
  %.not = icmp eq ptr %0, null
  br i1 %.not, label %16, label %2

2:                                                ; preds = %1
  %3 = getelementptr inbounds nuw i8, ptr %0, i64 68
  %4 = load i8, ptr %3, align 4, !tbaa !39
  %.not8 = icmp eq i8 %4, 0
  br i1 %.not8, label %8, label %5

5:                                                ; preds = %2
  %6 = getelementptr inbounds nuw i8, ptr %0, i64 56
  %7 = load ptr, ptr %6, align 8, !tbaa !36
  tail call void @uprv_free_77(ptr noundef %7)
  br label %8

8:                                                ; preds = %5, %2
  %9 = getelementptr inbounds nuw i8, ptr %0, i64 72
  %10 = load ptr, ptr %9, align 8, !tbaa !21
  %.not9 = icmp eq ptr %10, null
  br i1 %.not9, label %15, label %11

11:                                               ; preds = %8
  %12 = getelementptr inbounds nuw i8, ptr %10, i64 144128
  %13 = load ptr, ptr %12, align 8, !tbaa !24
  tail call void @uprv_free_77(ptr noundef %13)
  %14 = load ptr, ptr %9, align 8, !tbaa !21
  tail call void @uprv_free_77(ptr noundef %14)
  br label %15

15:                                               ; preds = %11, %8
  tail call void @uprv_free_77(ptr noundef nonnull %0)
  br label %16

16:                                               ; preds = %15, %1
  ret void
}